target datalayout = "e-m:e-p270:32:32-p271:32:32-p272:64:64-i64:64-i128:128-f80:128-n8:16:32:64-S128"
target triple = "x86_64-pc-linux-gnu"

%struct.lua_State = type { ptr, i8, i8, i8, i8, i16, %union.StkIdRel, ptr, ptr, %union.StkIdRel, %union.StkIdRel, ptr, %union.StkIdRel, ptr, ptr, ptr, %struct.CallInfo, ptr, i64, i32, i32, i32, i32, i32, %struct.anon.2 }
%union.StkIdRel = type { ptr }
%struct.CallInfo = type { %union.StkIdRel, %union.StkIdRel, ptr, ptr, %union.anon, %union.anon.1, i32 }
%union.anon = type { %struct.anon.0 }
%struct.anon.0 = type { ptr, i64, i64 }
%union.anon.1 = type { i32 }
%struct.anon.2 = type { i32, i32 }
%struct.TValue = type { %union.Value, i8 }
%union.Value = type { ptr }
%union.StackValue = type { %struct.TValue }

; Function Attrs: nounwind uwtable
define hidden void @luaT_callTM(ptr noundef %0, ptr noundef %1, ptr noundef %2, ptr noundef %3, ptr noundef %4) #0 {
  %6 = alloca ptr, align 8
  %7 = alloca ptr, align 8
  %8 = alloca ptr, align 8
  %9 = alloca ptr, align 8
  %10 = alloca ptr, align 8
  %11 = alloca ptr, align 8
  %12 = alloca ptr, align 8
  %13 = alloca ptr, align 8
  %14 = alloca ptr, align 8
  %15 = alloca ptr, align 8
  %16 = alloca ptr, align 8
  %17 = alloca ptr, align 8
  %18 = alloca ptr, align 8
  %19 = alloca ptr, align 8
  store ptr %0, ptr %6, align 8, !tbaa !4
  store ptr %1, ptr %7, align 8, !tbaa !28
  store ptr %2, ptr %8, align 8, !tbaa !28
  store ptr %3, ptr %9, align 8, !tbaa !28
  store ptr %4, ptr %10, align 8, !tbaa !28
  call void @llvm.lifetime.start.p0(i64 8, ptr %11) #6
  %20 = load ptr, ptr %6, align 8, !tbaa !4
  %21 = getelementptr inbounds nuw %struct.lua_State, ptr %20, i32 0, i32 6
  %22 = load ptr, ptr %21, align 8, !tbaa !36
  store ptr %22, ptr %11, align 8, !tbaa !43
  call void @llvm.lifetime.start.p0(i64 8, ptr %12) #6
  %23 = load ptr, ptr %11, align 8, !tbaa !43
  store ptr %23, ptr %12, align 8, !tbaa !28
  call void @llvm.lifetime.start.p0(i64 8, ptr %13) #6
  %24 = load ptr, ptr %7, align 8, !tbaa !28
  store ptr %24, ptr %13, align 8, !tbaa !28
  %25 = load ptr, ptr %12, align 8, !tbaa !28
  %26 = getelementptr inbounds nuw %struct.TValue, ptr %25, i32 0, i32 0
  %27 = load ptr, ptr %13, align 8, !tbaa !28
  %28 = getelementptr inbounds nuw %struct.TValue, ptr %27, i32 0, i32 0
  call void @llvm.memcpy.p0.p0.i64(ptr align 8 %26, ptr align 8 %28, i64 8, i1 false), !tbaa.struct !45
  %29 = load ptr, ptr %13, align 8, !tbaa !28
  %30 = getelementptr inbounds nuw %struct.TValue, ptr %29, i32 0, i32 1
  %31 = load i8, ptr %30, align 8, !tbaa !30
  %32 = load ptr, ptr %12, align 8, !tbaa !28
  %33 = getelementptr inbounds nuw %struct.TValue, ptr %32, i32 0, i32 1
  store i8 %31, ptr %33, align 8, !tbaa !30
  call void @llvm.lifetime.end.p0(i64 8, ptr %13) #6
  call void @llvm.lifetime.end.p0(i64 8, ptr %12) #6
  call void @llvm.lifetime.start.p0(i64 8, ptr %14) #6
  %34 = load ptr, ptr %11, align 8, !tbaa !43
  %35 = getelementptr inbounds %union.StackValue, ptr %34, i64 1
  store ptr %35, ptr %14, align 8, !tbaa !28
  call void @llvm.lifetime.start.p0(i64 8, ptr %15) #6
  %36 = load ptr, ptr %8, align 8, !tbaa !28
  store ptr %36, ptr %15, align 8, !tbaa !28
  %37 = load ptr, ptr %14, align 8, !tbaa !28
  %38 = getelementptr inbounds nuw %struct.TValue, ptr %37, i32 0, i32 0
  %39 = load ptr, ptr %15, align 8, !tbaa !28
  %40 = getelementptr inbounds nuw %struct.TValue, ptr %39, i32 0, i32 0
  call void @llvm.memcpy.p0.p0.i64(ptr align 8 %38, ptr align 8 %40, i64 8, i1 false), !tbaa.struct !45
  %41 = load ptr, ptr %15, align 8, !tbaa !28
  %42 = getelementptr inbounds nuw %struct.TValue, ptr %41, i32 0, i32 1
  %43 = load i8, ptr %42, align 8, !tbaa !30
  %44 = load ptr, ptr %14, align 8, !tbaa !28
  %45 = getelementptr inbounds nuw %struct.TValue, ptr %44, i32 0, i32 1
  store i8 %43, ptr %45, align 8, !tbaa !30
  call void @llvm.lifetime.end.p0(i64 8, ptr %15) #6
  call void @llvm.lifetime.end.p0(i64 8, ptr %14) #6
  call void @llvm.lifetime.start.p0(i64 8, ptr %16) #6
  %46 = load ptr, ptr %11, align 8, !tbaa !43
  %47 = getelementptr inbounds %union.StackValue, ptr %46, i64 2
  store ptr %47, ptr %16, align 8, !tbaa !28
  call void @llvm.lifetime.start.p0(i64 8, ptr %17) #6
  %48 = load ptr, ptr %9, align 8, !tbaa !28
  store ptr %48, ptr %17, align 8, !tbaa !28
  %49 = load ptr, ptr %16, align 8, !tbaa !28
  %50 = getelementptr inbounds nuw %struct.TValue, ptr %49, i32 0, i32 0
  %51 = load ptr, ptr %17, align 8, !tbaa !28
  %52 = getelementptr inbounds nuw %struct.TValue, ptr %51, i32 0, i32 0
  call void @llvm.memcpy.p0.p0.i64(ptr align 8 %50, ptr align 8 %52, i64 8, i1 false), !tbaa.struct !45
  %53 = load ptr, ptr %17, align 8, !tbaa !28
  %54 = getelementptr inbounds nuw %struct.TValue, ptr %53, i32 0, i32 1
  %55 = load i8, ptr %54, align 8, !tbaa !30
  %56 = load ptr, ptr %16, align 8, !tbaa !28
  %57 = getelementptr inbounds nuw %struct.TValue, ptr %56, i32 0, i32 1
  store i8 %55, ptr %57, align 8, !tbaa !30
  call void @llvm.lifetime.end.p0(i64 8, ptr %17) #6
  call void @llvm.lifetime.end.p0(i64 8, ptr %16) #6
  call void @llvm.lifetime.start.p0(i64 8, ptr %18) #6
  %58 = load ptr, ptr %11, align 8, !tbaa !43
  %59 = getelementptr inbounds %union.StackValue, ptr %58, i64 3
  store ptr %59, ptr %18, align 8, !tbaa !28
  call void @llvm.lifetime.start.p0(i64 8, ptr %19) #6
  %60 = load ptr, ptr %10, align 8, !tbaa !28
  store ptr %60, ptr %19, align 8, !tbaa !28
  %61 = load ptr, ptr %18, align 8, !tbaa !28
  %62 = getelementptr inbounds nuw %struct.TValue, ptr %61, i32 0, i32 0
  %63 = load ptr, ptr %19, align 8, !tbaa !28
  %64 = getelementptr inbounds nuw %struct.TValue, ptr %63, i32 0, i32 0
  call void @llvm.memcpy.p0.p0.i64(ptr align 8 %62, ptr align 8 %64, i64 8, i1 false), !tbaa.struct !45
  %65 = load ptr, ptr %19, align 8, !tbaa !28
  %66 = getelementptr inbounds nuw %struct.TValue, ptr %65, i32 0, i32 1
  %67 = load i8, ptr %66, align 8, !tbaa !30
  %68 = load ptr, ptr %18, align 8, !tbaa !28
  %69 = getelementptr inbounds nuw %struct.TValue, ptr %68, i32 0, i32 1
  store i8 %67, ptr %69, align 8, !tbaa !30
  call void @llvm.lifetime.end.p0(i64 8, ptr %19) #6
  call void @llvm.lifetime.end.p0(i64 8, ptr %18) #6
  %70 = load ptr, ptr %11, align 8, !tbaa !43
  %71 = getelementptr inbounds %union.StackValue, ptr %70, i64 4
  %72 = load ptr, ptr %6, align 8, !tbaa !4
  %73 = getelementptr inbounds nuw %struct.lua_State, ptr %72, i32 0, i32 6
  store ptr %71, ptr %73, align 8, !tbaa !36
  %74 = load ptr, ptr %6, align 8, !tbaa !4
  %75 = getelementptr inbounds nuw %struct.lua_State, ptr %74, i32 0, i32 8
  %76 = load ptr, ptr %75, align 8, !tbaa !46
  %77 = getelementptr inbounds nuw %struct.CallInfo, ptr %76, i32 0, i32 6
  %78 = load i32, ptr %77, align 4, !tbaa !47
  %79 = and i32 %78, 1081344
  %80 = icmp ne i32 %79, 0
  br i1 %80, label %84, label %81

81:                                               ; preds = %5
  %82 = load ptr, ptr %6, align 8, !tbaa !4
  %83 = load ptr, ptr %11, align 8, !tbaa !43
  call void @luaD_call(ptr noundef %82, ptr noundef %83, i32 noundef 0)
  br label %87

84:                                               ; preds = %5
  %85 = load ptr, ptr %6, align 8, !tbaa !4
  %86 = load ptr, ptr %11, align 8, !tbaa !43
  call void @luaD_callnoyield(ptr noundef %85, ptr noundef %86, i32 noundef 0)
  br label %87

87:                                               ; preds = %84, %81
  call void @llvm.lifetime.end.p0(i64 8, ptr %11) #6
  ret void
}