; Function Attrs: nounwind uwtable
define hidden void @luaT_callTM(ptr noundef %0, ptr noundef readonly captures(none) %1, ptr noundef readonly captures(none) %2, ptr noundef readonly captures(none) %3, ptr noundef readonly captures(none) %4) local_unnamed_addr #0 {
  %6 = getelementptr inbounds nuw i8, ptr %0, i64 16
  %7 = load ptr, ptr %6, align 8, !tbaa !31
  %8 = load i64, ptr %1, align 8, !tbaa !31
  store i64 %8, ptr %7, align 8, !tbaa !31
  %9 = getelementptr inbounds nuw i8, ptr %1, i64 8
  %10 = load i8, ptr %9, align 8, !tbaa !24
  %11 = getelementptr inbounds nuw i8, ptr %7, i64 8
  store i8 %10, ptr %11, align 8, !tbaa !24
  %12 = getelementptr inbounds nuw i8, ptr %7, i64 16
  %13 = load i64, ptr %2, align 8, !tbaa !31
  store i64 %13, ptr %12, align 8, !tbaa !31
  %14 = getelementptr inbounds nuw i8, ptr %2, i64 8
  %15 = load i8, ptr %14, align 8, !tbaa !24
  %16 = getelementptr inbounds nuw i8, ptr %7, i64 24
  store i8 %15, ptr %16, align 8, !tbaa !24
  %17 = getelementptr inbounds nuw i8, ptr %7, i64 32
  %18 = load i64, ptr %3, align 8, !tbaa !31
  store i64 %18, ptr %17, align 8, !tbaa !31
  %19 = getelementptr inbounds nuw i8, ptr %3, i64 8
  %20 = load i8, ptr %19, align 8, !tbaa !24
  %21 = getelementptr inbounds nuw i8, ptr %7, i64 40
  store i8 %20, ptr %21, align 8, !tbaa !24
  %22 = getelementptr inbounds nuw i8, ptr %7, i64 48
  %23 = load i64, ptr %4, align 8, !tbaa !31
  store i64 %23, ptr %22, align 8, !tbaa !31
  %24 = getelementptr inbounds nuw i8, ptr %4, i64 8
  %25 = load i8, ptr %24, align 8, !tbaa !24
  %26 = getelementptr inbounds nuw i8, ptr %7, i64 56
  store i8 %25, ptr %26, align 8, !tbaa !24
  %27 = getelementptr inbounds nuw i8, ptr %7, i64 64
  store ptr %27, ptr %6, align 8, !tbaa !31
  %28 = getelementptr inbounds nuw i8, ptr %0, i64 32
  %29 = load ptr, ptr %28, align 8, !tbaa !39
  %30 = getelementptr inbounds nuw i8, ptr %29, i64 60
  %31 = load i32, ptr %30, align 4, !tbaa !40
  %32 = and i32 %31, 1081344
  %.not = icmp eq i32 %32, 0
  br i1 %.not, label %33, label %34

33:                                               ; preds = %5
  tail call void @luaD_call(ptr noundef nonnull %0, ptr noundef nonnull %7, i32 noundef 0) #5
  br label %35

34:                                               ; preds = %5
  tail call void @luaD_callnoyield(ptr noundef nonnull %0, ptr noundef nonnull %7, i32 noundef 0) #5
  br label %35

35:                                               ; preds = %34, %33
  ret void
}